target datalayout = "e-m:e-p270:32:32-p271:32:32-p272:64:64-i64:64-i128:128-f80:128-n8:16:32:64-S128"
target triple = "x86_64-pc-linux-gnu"

@the_repository = external global ptr, align 8
@.str.190 = private unnamed_addr constant [22 x i8] c"Subproject commit %s\0A\00", align 1

; Function Attrs: nounwind uwtable
define internal i32 @read_blob_object(ptr noundef %0, ptr noundef %1, i32 noundef %2) #0 {
  %4 = alloca i32, align 4
  %5 = alloca ptr, align 8
  %6 = alloca ptr, align 8
  %7 = alloca i32, align 4
  %8 = alloca i32, align 4
  %9 = alloca i64, align 8
  %10 = alloca ptr, align 8
  %11 = alloca i32, align 4
  store ptr %0, ptr %5, align 8, !tbaa !75
  store ptr %1, ptr %6, align 8, !tbaa !268
  store i32 %2, ptr %7, align 4, !tbaa !39
  %12 = load i32, ptr %7, align 4, !tbaa !39
  %13 = and i32 %12, 61440
  %14 = icmp eq i32 %13, 57344
  br i1 %14, label %15, label %20

15:                                               ; preds = %3
  %16 = load ptr, ptr %5, align 8, !tbaa !75
  call void @strbuf_grow(ptr noundef %16, i64 noundef 100)
  %17 = load ptr, ptr %5, align 8, !tbaa !75
  %18 = load ptr, ptr %6, align 8, !tbaa !268
  %19 = call ptr @oid_to_hex(ptr noundef %18)
  call void (ptr, ptr, ...) @strbuf_addf(ptr noundef %17, ptr noundef @.str.190, ptr noundef %19)
  br label %36

20:                                               ; preds = %3
  call void @llvm.lifetime.start.p0(i64 4, ptr %8) #12
  call void @llvm.lifetime.start.p0(i64 8, ptr %9) #12
  call void @llvm.lifetime.start.p0(i64 8, ptr %10) #12
  %21 = load ptr, ptr @the_repository, align 8, !tbaa !9
  %22 = load ptr, ptr %6, align 8, !tbaa !268
  %23 = call ptr @repo_read_object_file(ptr noundef %21, ptr noundef %22, ptr noundef %8, ptr noundef %9)
  store ptr %23, ptr %10, align 8, !tbaa !11
  %24 = load ptr, ptr %10, align 8, !tbaa !11
  %25 = icmp ne ptr %24, null
  br i1 %25, label %27, label %26

26:                                               ; preds = %20
  store i32 -1, ptr %4, align 4
  store i32 1, ptr %11, align 4
  br label %33

27:                                               ; preds = %20
  %28 = load ptr, ptr %5, align 8, !tbaa !75
  %29 = load ptr, ptr %10, align 8, !tbaa !11
  %30 = load i64, ptr %9, align 8, !tbaa !87
  %31 = load i64, ptr %9, align 8, !tbaa !87
  %32 = add i64 %31, 1
  call void @strbuf_attach(ptr noundef %28, ptr noundef %29, i64 noundef %30, i64 noundef %32)
  store i32 0, ptr %11, align 4
  br label %33

33:                                               ; preds = %27, %26
  call void @llvm.lifetime.end.p0(i64 8, ptr %10) #12
  call void @llvm.lifetime.end.p0(i64 8, ptr %9) #12
  call void @llvm.lifetime.end.p0(i64 4, ptr %8) #12
  %34 = load i32, ptr %11, align 4
  switch i32 %34, label %39 [
    i32 0, label %35
    i32 1, label %37
  ]

35:                                               ; preds = %33
  br label %36

36:                                               ; preds = %35, %15
  store i32 0, ptr %4, align 4
  br label %37

37:                                               ; preds = %36, %33
  %38 = load i32, ptr %4, align 4
  ret i32 %38

39:                                               ; preds = %33
  unreachable
}