; Function Attrs: nounwind uwtable
define internal fastcc range(i32 -1, 1) i32 @read_blob_object(ptr noundef nonnull %0, ptr noundef nonnull %1, i32 noundef %2) unnamed_addr #0 {
  %4 = alloca i32, align 4
  %5 = alloca i64, align 8
  %6 = and i32 %2, 61440
  %7 = icmp eq i32 %6, 57344
  br i1 %7, label %8, label %10

8:                                                ; preds = %3
  tail call void @strbuf_grow(ptr noundef nonnull %0, i64 noundef 100) #21
  %9 = tail call ptr @oid_to_hex(ptr noundef nonnull %1) #21
  tail call void (ptr, ptr, ...) @strbuf_addf(ptr noundef nonnull %0, ptr noundef nonnull @.str.190, ptr noundef %9) #21
  br label %16

10:                                               ; preds = %3
  call void @llvm.lifetime.start.p0(i64 4, ptr nonnull %4) #21
  call void @llvm.lifetime.start.p0(i64 8, ptr nonnull %5) #21
  %11 = load ptr, ptr @the_repository, align 8, !tbaa !31
  %12 = call ptr @repo_read_object_file(ptr noundef %11, ptr noundef nonnull %1, ptr noundef nonnull %4, ptr noundef nonnull %5) #21
  %.not = icmp eq ptr %12, null
  br i1 %.not, label %15, label %.thread

.thread:                                          ; preds = %10
  %13 = load i64, ptr %5, align 8, !tbaa !138
  %14 = add i64 %13, 1
  call void @strbuf_attach(ptr noundef nonnull %0, ptr noundef nonnull %12, i64 noundef %13, i64 noundef %14) #21
  call void @llvm.lifetime.end.p0(i64 8, ptr nonnull %5) #21
  call void @llvm.lifetime.end.p0(i64 4, ptr nonnull %4) #21
  br label %16

15:                                               ; preds = %10
  call void @llvm.lifetime.end.p0(i64 8, ptr nonnull %5) #21
  call void @llvm.lifetime.end.p0(i64 4, ptr nonnull %4) #21
  br label %16

16:                                               ; preds = %8, %.thread, %15
  %.1 = phi i32 [ -1, %15 ], [ 0, %.thread ], [ 0, %8 ]
  ret i32 %.1
}